/*
 * @file ./testcases/output/ass6_21CS10016_21CS30050_test_8.s
 * @brief This file contains the assembly code for the input source file.
 * It is generated by the tinyC Compiler.
Assignment Number 6
Student Information:
 - Bratin Mondal(Roll Number - 21CS10016)
 - Somya Kumar(Roll Number - 21CS30050)
  */

	.file	"./testcases/input/ass6_21CS10016_21CS30050_test_8.c"
	.text
	.section	.rodata
.LC0:
	.string	"\n"
.LC1:
	.string	"\n"
.LC2:
	.string	" ██████╗ ██████╗ ███╗   ███╗██████╗ ██╗██╗     ███████╗██████╗ ███████╗\n"
.LC3:
	.string	"██╔════╝██╔═══██╗████╗ ████║██╔══██╗██║██║     ██╔════╝██╔══██╗██╔════╝\n"
.LC4:
	.string	"██║     ██║   ██║██╔████╔██║██████╔╝██║██║     █████╗  ██████╔╝███████╗\n"
.LC5:
	.string	"██║     ██║   ██║██║╚██╔╝██║██╔═══╝ ██║██║     ██╔══╝  ██╔══██╗╚════██║\n"
.LC6:
	.string	"╚██████╗╚██████╔╝██║ ╚═╝ ██║██║     ██║███████╗███████╗██║  ██║███████║\n"
.LC7:
	.string	" ╚═════╝ ╚═════╝ ╚═╝     ╚═╝╚═╝     ╚═╝╚══════╝╚══════╝╚═╝  ╚═╝╚══════╝\n"
.LC8:
	.string	"\n"
.LC9:
	.string	"██╗      █████╗ ██████╗ \n"
.LC10:
	.string	"██║     ██╔══██╗██╔══██╗\n"
.LC11:
	.string	"██║     ███████║██████╔╝\n"
.LC12:
	.string	"██║     ██╔══██║██╔══██╗\n"
.LC13:
	.string	"███████╗██║  ██║██████╔╝\n"
.LC14:
	.string	"╚══════╝╚═╝  ╚═╝╚═════╝\n"
.LC15:
	.string	"\n"
.LC16:
	.string	" █████╗ ██╗   ██╗████████╗██╗   ██╗███╗   ███╗███╗   ██╗\n"
.LC17:
	.string	"██╔══██╗██║   ██║╚══██╔══╝██║   ██║████╗ ████║████╗  ██║\n"
.LC18:
	.string	"███████║██║   ██║   ██║   ██║   ██║██╔████╔██║██╔██╗ ██║\n"
.LC19:
	.string	"██╔══██║██║   ██║   ██║   ██║   ██║██║╚██╔╝██║██║╚██╗██║\n"
.LC20:
	.string	"██║  ██║╚██████╔╝   ██║   ╚██████╔╝██║ ╚═╝ ██║██║ ╚████║\n"
.LC21:
	.string	"╚═╝  ╚═╝ ╚═════╝    ╚═╝    ╚═════╝ ╚═╝     ╚═╝╚═╝  ╚═══╝\n"
.LC22:
	.string	"\n"
.LC23:
	.string	"██████╗  ██████╗ ██████╗ ██████╗\n"
.LC24:
	.string	"╚════██╗██╔═████╗╚════██╗╚════██╗\n"
.LC25:
	.string	" █████╔╝██║██╔██║ █████╔╝ █████╔╝\n"
.LC26:
	.string	"██╔═══╝ ████╔╝██║██╔═══╝  ╚═══██╗\n"
.LC27:
	.string	"███████╗╚██████╔╝███████╗██████╔╝\n"
.LC28:
	.string	"╚══════╝ ╚═════╝ ╚══════╝╚═════╝\n"
.LC29:
	.string	"\n\n"
.LC30:
	.string	"      ██████╗  ██╗ ██████╗███████╗ ██╗ ██████╗  ██████╗  ██╗ ██████╗\n"
.LC31:
	.string	"      ╚════██╗███║██╔════╝██╔════╝███║██╔═████╗██╔═████╗███║██╔════╝\n"
.LC32:
	.string	"█████╗ █████╔╝╚██║██║     ███████╗╚██║██║██╔██║██║██╔██║╚██║███████╗\n"
.LC33:
	.string	"╚════╝██╔═══╝  ██║██║     ╚════██║ ██║████╔╝██║████╔╝██║ ██║██╔═══██╗\n"
.LC34:
	.string	"      ███████╗ ██║╚██████╗███████║ ██║╚██████╔╝╚██████╔╝ ██║╚██████╔╝\n"
.LC35:
	.string	"      ╚══════╝ ╚═╝ ╚═════╝╚══════╝ ╚═╝ ╚═════╝  ╚═════╝  ╚═╝ ╚═════╝\n"
.LC36:
	.string	"\n"
.LC37:
	.string	"      ██████╗  ██╗ ██████╗███████╗██████╗  ██████╗  ██████╗ ███████╗ ██████╗\n"
.LC38:
	.string	"      ╚════██╗███║██╔════╝██╔════╝╚════██╗██╔═████╗██╔═████╗██╔════╝██╔═████╗\n"
.LC39:
	.string	"█████╗ █████╔╝╚██║██║     ███████╗ █████╔╝██║██╔██║██║██╔██║███████╗██║██╔██║\n"
.LC40:
	.string	"╚════╝██╔═══╝  ██║██║     ╚════██║ ╚═══██╗████╔╝██║████╔╝██║╚════██║████╔╝██║\n"
.LC41:
	.string	"      ███████╗ ██║╚██████╗███████║██████╔╝╚██████╔╝╚██████╔╝███████║╚██████╔╝\n"
.LC42:
	.string	"      ╚══════╝ ╚═╝ ╚═════╝╚══════╝╚═════╝  ╚═════╝  ╚═════╝ ╚══════╝ ╚═════╝\n"
.LC43:
	.float	-1
	.text
	.globl	main
	.type	main, @function
main: 
.LFB0:
	.cfi_startproc
	pushq 	%rbp
	.cfi_def_cfa_offset 8
	.cfi_offset 5, -8
	movq 	%rsp, %rbp
	.cfi_def_cfa_register 5
	subq	$544, %rsp

	movq 	$.LC0, -24(%rbp)
	movq 	-24(%rbp), %rdi
	call	printStr
	movl	%eax, -32(%rbp)
	movq 	$.LC1, -36(%rbp)
	movq 	-36(%rbp), %rdi
	call	printStr
	movl	%eax, -44(%rbp)
	movq 	$.LC2, -48(%rbp)
	movq 	-48(%rbp), %rdi
	call	printStr
	movl	%eax, -56(%rbp)
	movq 	$.LC3, -60(%rbp)
	movq 	-60(%rbp), %rdi
	call	printStr
	movl	%eax, -68(%rbp)
	movq 	$.LC4, -72(%rbp)
	movq 	-72(%rbp), %rdi
	call	printStr
	movl	%eax, -80(%rbp)
	movq 	$.LC5, -84(%rbp)
	movq 	-84(%rbp), %rdi
	call	printStr
	movl	%eax, -92(%rbp)
	movq 	$.LC6, -96(%rbp)
	movq 	-96(%rbp), %rdi
	call	printStr
	movl	%eax, -104(%rbp)
	movq 	$.LC7, -108(%rbp)
	movq 	-108(%rbp), %rdi
	call	printStr
	movl	%eax, -116(%rbp)
	movq 	$.LC8, -120(%rbp)
	movq 	-120(%rbp), %rdi
	call	printStr
	movl	%eax, -128(%rbp)
	movq 	$.LC9, -132(%rbp)
	movq 	-132(%rbp), %rdi
	call	printStr
	movl	%eax, -140(%rbp)
	movq 	$.LC10, -144(%rbp)
	movq 	-144(%rbp), %rdi
	call	printStr
	movl	%eax, -152(%rbp)
	movq 	$.LC11, -156(%rbp)
	movq 	-156(%rbp), %rdi
	call	printStr
	movl	%eax, -164(%rbp)
	movq 	$.LC12, -168(%rbp)
	movq 	-168(%rbp), %rdi
	call	printStr
	movl	%eax, -176(%rbp)
	movq 	$.LC13, -180(%rbp)
	movq 	-180(%rbp), %rdi
	call	printStr
	movl	%eax, -188(%rbp)
	movq 	$.LC14, -192(%rbp)
	movq 	-192(%rbp), %rdi
	call	printStr
	movl	%eax, -200(%rbp)
	movq 	$.LC15, -204(%rbp)
	movq 	-204(%rbp), %rdi
	call	printStr
	movl	%eax, -212(%rbp)
	movq 	$.LC16, -216(%rbp)
	movq 	-216(%rbp), %rdi
	call	printStr
	movl	%eax, -224(%rbp)
	movq 	$.LC17, -228(%rbp)
	movq 	-228(%rbp), %rdi
	call	printStr
	movl	%eax, -236(%rbp)
	movq 	$.LC18, -240(%rbp)
	movq 	-240(%rbp), %rdi
	call	printStr
	movl	%eax, -248(%rbp)
	movq 	$.LC19, -252(%rbp)
	movq 	-252(%rbp), %rdi
	call	printStr
	movl	%eax, -260(%rbp)
	movq 	$.LC20, -264(%rbp)
	movq 	-264(%rbp), %rdi
	call	printStr
	movl	%eax, -272(%rbp)
	movq 	$.LC21, -276(%rbp)
	movq 	-276(%rbp), %rdi
	call	printStr
	movl	%eax, -284(%rbp)
	movq 	$.LC22, -288(%rbp)
	movq 	-288(%rbp), %rdi
	call	printStr
	movl	%eax, -296(%rbp)
	movq 	$.LC23, -300(%rbp)
	movq 	-300(%rbp), %rdi
	call	printStr
	movl	%eax, -308(%rbp)
	movq 	$.LC24, -312(%rbp)
	movq 	-312(%rbp), %rdi
	call	printStr
	movl	%eax, -320(%rbp)
	movq 	$.LC25, -324(%rbp)
	movq 	-324(%rbp), %rdi
	call	printStr
	movl	%eax, -332(%rbp)
	movq 	$.LC26, -336(%rbp)
	movq 	-336(%rbp), %rdi
	call	printStr
	movl	%eax, -344(%rbp)
	movq 	$.LC27, -348(%rbp)
	movq 	-348(%rbp), %rdi
	call	printStr
	movl	%eax, -356(%rbp)
	movq 	$.LC28, -360(%rbp)
	movq 	-360(%rbp), %rdi
	call	printStr
	movl	%eax, -368(%rbp)
	movq 	$.LC29, -372(%rbp)
	movq 	-372(%rbp), %rdi
	call	printStr
	movl	%eax, -380(%rbp)
	movq 	$.LC30, -384(%rbp)
	movq 	-384(%rbp), %rdi
	call	printStr
	movl	%eax, -392(%rbp)
	movq 	$.LC31, -396(%rbp)
	movq 	-396(%rbp), %rdi
	call	printStr
	movl	%eax, -404(%rbp)
	movq 	$.LC32, -408(%rbp)
	movq 	-408(%rbp), %rdi
	call	printStr
	movl	%eax, -416(%rbp)
	movq 	$.LC33, -420(%rbp)
	movq 	-420(%rbp), %rdi
	call	printStr
	movl	%eax, -428(%rbp)
	movq 	$.LC34, -432(%rbp)
	movq 	-432(%rbp), %rdi
	call	printStr
	movl	%eax, -440(%rbp)
	movq 	$.LC35, -444(%rbp)
	movq 	-444(%rbp), %rdi
	call	printStr
	movl	%eax, -452(%rbp)
	movq 	$.LC36, -456(%rbp)
	movq 	-456(%rbp), %rdi
	call	printStr
	movl	%eax, -464(%rbp)
	movq 	$.LC37, -468(%rbp)
	movq 	-468(%rbp), %rdi
	call	printStr
	movl	%eax, -476(%rbp)
	movq 	$.LC38, -480(%rbp)
	movq 	-480(%rbp), %rdi
	call	printStr
	movl	%eax, -488(%rbp)
	movq 	$.LC39, -492(%rbp)
	movq 	-492(%rbp), %rdi
	call	printStr
	movl	%eax, -500(%rbp)
	movq 	$.LC40, -504(%rbp)
	movq 	-504(%rbp), %rdi
	call	printStr
	movl	%eax, -512(%rbp)
	movq 	$.LC41, -516(%rbp)
	movq 	-516(%rbp), %rdi
	call	printStr
	movl	%eax, -524(%rbp)
	movq 	$.LC42, -528(%rbp)
	movq 	-528(%rbp), %rdi
	call	printStr
	movl	%eax, -536(%rbp)
	movl	$0, %eax
	movl 	%eax, -540(%rbp)
	movq	-540(%rbp), %rax

	leave
	.cfi_restore 5
	.cfi_def_cfa 4, 4
	ret
	.cfi_endproc
.LFE0:
	.size	main, .-main
